(ikiva.fonttools.font_manager
FontManager
p1
(dp2
S'afm_lookup_cache'
p3
(dp4
sS'ttflist'
p5
(lp6
ccopy_reg
_reconstructor
p7
(ckiva.fonttools.font_manager
FontEntry
p8
c__builtin__
object
p9
NtRp10
(dp11
S'style'
p12
S'normal'
p13
sS'name'
p14
S'MathJax_Script'
p15
sS'weight'
p16
I400
sS'stretch'
p17
g13
sS'variant'
p18
g13
sS'fname'
p19
S'/usr/share/fonts/mathjax/MathJax_Script-Regular.otf'
p20
sS'size'
p21
S'scalable'
p22
sbag7
(g8
g9
NtRp23
(dp24
g12
g13
sg14
S'MathJax_WinIE6'
p25
sg16
I400
sg17
g13
sg18
g13
sg19
S'/usr/share/fonts/mathjax/MathJax_WinIE6-Regular.otf'
p26
sg21
g22
sbag7
(g8
g9
NtRp27
(dp28
g12
g13
sg14
S'cmr10'
p29
sg16
I400
sg17
g13
sg18
g13
sg19
S'/usr/share/fonts/lyx/cmr10.ttf'
p30
sg21
g22
sbag7
(g8
g9
NtRp31
(dp32
g12
g13
sg14
S'MathJax_Size2'
p33
sg16
I400
sg17
g13
sg18
g13
sg19
S'/usr/share/fonts/mathjax/MathJax_Size2-Regular.otf'
p34
sg21
g22
sbag7
(g8
g9
NtRp35
(dp36
g12
g13
sg14
S'stmary10'
p37
sg16
I400
sg17
g13
sg18
g13
sg19
S'/usr/share/fonts/lyx/stmary10.ttf'
p38
sg21
g22
sbag7
(g8
g9
NtRp39
(dp40
g12
S'oblique'
p41
sg14
S'Cantarell'
p42
sg16
I400
sg17
g13
sg18
g13
sg19
S'/usr/share/fonts/abattis-cantarell/Cantarell-Oblique.otf'
p43
sg21
g22
sbag7
(g8
g9
NtRp44
(dp45
g12
g13
sg14
S'MathJax_Typewriter'
p46
sg16
I400
sg17
g13
sg18
g13
sg19
S'/usr/share/fonts/mathjax/MathJax_Typewriter-Regular.otf'
p47
sg21
g22
sbag7
(g8
g9
NtRp48
(dp49
g12
g13
sg14
S'MathJax_Main'
p50
sg16
I700
sg17
g13
sg18
g13
sg19
S'/usr/share/fonts/mathjax/MathJax_Main-Bold.otf'
p51
sg21
g22
sbag7
(g8
g9
NtRp52
(dp53
g12
S'italic'
p54
sg14
S'MathJax_Main'
p55
sg16
I400
sg17
g13
sg18
g13
sg19
S'/usr/share/fonts/mathjax/MathJax_Main-Italic.otf'
p56
sg21
g22
sbag7
(g8
g9
NtRp57
(dp58
g12
g13
sg14
S'Liberation Sans'
p59
sg16
I400
sg17
g13
sg18
g13
sg19
S'/usr/share/fonts/liberation/LiberationSans-Regular.ttf'
p60
sg21
g22
sbag7
(g8
g9
NtRp61
(dp62
g12
g13
sg14
S'DejaVu LGC Sans Mono'
p63
sg16
I400
sg17
g13
sg18
g13
sg19
S'/usr/share/fonts/dejavu/DejaVuLGCSansMono.ttf'
p64
sg21
g22
sbag7
(g8
g9
NtRp65
(dp66
g12
g13
sg14
S'DejaVu Sans Condensed'
p67
sg16
I700
sg17
S'condensed'
p68
sg18
g13
sg19
S'/usr/share/fonts/dejavu/DejaVuSansCondensed-Bold.ttf'
p69
sg21
g22
sbag7
(g8
g9
NtRp70
(dp71
g12
g13
sg14
S'MathJax_Caligraphic'
p72
sg16
I400
sg17
g13
sg18
g13
sg19
S'/usr/share/fonts/mathjax/MathJax_Caligraphic-Regular.otf'
p73
sg21
g22
sbag7
(g8
g9
NtRp74
(dp75
g12
g13
sg14
S'DejaVu LGC Sans Mono'
p76
sg16
I700
sg17
g13
sg18
g13
sg19
S'/usr/share/fonts/dejavu/DejaVuLGCSansMono-Bold.ttf'
p77
sg21
g22
sbag7
(g8
g9
NtRp78
(dp79
g12
g13
sg14
S'cmmi10'
p80
sg16
I400
sg17
g13
sg18
g13
sg19
S'/usr/share/fonts/lyx/cmmi10.ttf'
p81
sg21
g22
sbag7
(g8
g9
NtRp82
(dp83
g12
g41
sg14
S'DejaVu LGC Sans Mono'
p84
sg16
I700
sg17
g13
sg18
g13
sg19
S'/usr/share/fonts/dejavu/DejaVuLGCSansMono-BoldOblique.ttf'
p85
sg21
g22
sbag7
(g8
g9
NtRp86
(dp87
g12
g54
sg14
S'MathJax_SansSerif'
p88
sg16
I400
sg17
g13
sg18
g13
sg19
S'/usr/share/fonts/mathjax/MathJax_SansSerif-Italic.otf'
p89
sg21
g22
sbag7
(g8
g9
NtRp90
(dp91
g12
g13
sg14
S'Liberation Sans'
p92
sg16
I700
sg17
g13
sg18
g13
sg19
S'/usr/share/fonts/liberation/LiberationSans-Bold.ttf'
p93
sg21
g22
sbag7
(g8
g9
NtRp94
(dp95
g12
g54
sg14
S'Liberation Sans'
p96
sg16
I400
sg17
g13
sg18
g13
sg19
S'/usr/share/fonts/liberation/LiberationSans-Italic.ttf'
p97
sg21
g22
sbag7
(g8
g9
NtRp98
(dp99
g12
g41
sg14
S'DejaVu Sans Mono'
p100
sg16
I400
sg17
g13
sg18
g13
sg19
S'/usr/share/fonts/dejavu/DejaVuSansMono-Oblique.ttf'
p101
sg21
g22
sbag7
(g8
g9
NtRp102
(dp103
g12
g13
sg14
S'rsfs10'
p104
sg16
I400
sg17
g13
sg18
g13
sg19
S'/usr/share/fonts/lyx/rsfs10.ttf'
p105
sg21
g22
sbag7
(g8
g9
NtRp106
(dp107
g12
g13
sg14
S'cmex10'
p108
sg16
I400
sg17
g13
sg18
g13
sg19
S'/usr/share/fonts/lyx/cmex10.ttf'
p109
sg21
g22
sbag7
(g8
g9
NtRp110
(dp111
g12
g13
sg14
S'Liberation Mono'
p112
sg16
I400
sg17
g13
sg18
g13
sg19
S'/usr/share/fonts/liberation/LiberationMono-Regular.ttf'
p113
sg21
g22
sbag7
(g8
g9
NtRp114
(dp115
g12
g13
sg14
S'DejaVu Sans'
p116
sg16
I700
sg17
g13
sg18
g13
sg19
S'/usr/share/fonts/dejavu/DejaVuSans-Bold.ttf'
p117
sg21
g22
sbag7
(g8
g9
NtRp118
(dp119
g12
g13
sg14
S'DejaVu Sans Mono'
p120
sg16
I700
sg17
g13
sg18
g13
sg19
S'/usr/share/fonts/dejavu/DejaVuSansMono-Bold.ttf'
p121
sg21
g22
sbag7
(g8
g9
NtRp122
(dp123
g12
g41
sg14
S'DejaVu Sans'
p124
sg16
I400
sg17
g13
sg18
g13
sg19
S'/usr/share/fonts/dejavu/DejaVuSans-Oblique.ttf'
p125
sg21
g22
sbag7
(g8
g9
NtRp126
(dp127
g12
g13
sg14
S'MathJax_Size4'
p128
sg16
I400
sg17
g13
sg18
g13
sg19
S'/usr/share/fonts/mathjax/MathJax_Size4-Regular.otf'
p129
sg21
g22
sbag7
(g8
g9
NtRp130
(dp131
g12
g41
sg14
S'DejaVu LGC Sans Mono'
p132
sg16
I400
sg17
g13
sg18
g13
sg19
S'/usr/share/fonts/dejavu/DejaVuLGCSansMono-Oblique.ttf'
p133
sg21
g22
sbag7
(g8
g9
NtRp134
(dp135
g12
g13
sg14
S'MathJax_Fraktur'
p136
sg16
I400
sg17
g13
sg18
g13
sg19
S'/usr/share/fonts/mathjax/MathJax_Fraktur-Regular.otf'
p137
sg21
g22
sbag7
(g8
g9
NtRp138
(dp139
g12
g41
sg14
S'Cantarell'
p140
sg16
I700
sg17
g13
sg18
g13
sg19
S'/usr/share/fonts/abattis-cantarell/Cantarell-BoldOblique.otf'
p141
sg21
g22
sbag7
(g8
g9
NtRp142
(dp143
g12
g13
sg14
S'MathJax_AMS'
p144
sg16
I400
sg17
g13
sg18
g13
sg19
S'/usr/share/fonts/mathjax/MathJax_AMS-Regular.otf'
p145
sg21
g22
sbag7
(g8
g9
NtRp146
(dp147
g12
g13
sg14
S'msbm10'
p148
sg16
I400
sg17
g13
sg18
g13
sg19
S'/usr/share/fonts/lyx/msbm10.ttf'
p149
sg21
g22
sbag7
(g8
g9
NtRp150
(dp151
g12
g13
sg14
S'DejaVu Sans'
p152
sg16
I400
sg17
g13
sg18
g13
sg19
S'/usr/share/fonts/dejavu/DejaVuSans.ttf'
p153
sg21
g22
sbag7
(g8
g9
NtRp154
(dp155
g12
g54
sg14
S'Liberation Sans'
p156
sg16
I700
sg17
g13
sg18
g13
sg19
S'/usr/share/fonts/liberation/LiberationSans-BoldItalic.ttf'
p157
sg21
g22
sbag7
(g8
g9
NtRp158
(dp159
g12
g13
sg14
S'DejaVu Sans Condensed'
p160
sg16
I400
sg17
g68
sg18
g13
sg19
S'/usr/share/fonts/dejavu/DejaVuSansCondensed.ttf'
p161
sg21
g22
sbag7
(g8
g9
NtRp162
(dp163
g12
g54
sg14
S'MathJax_Math'
p164
sg16
I700
sg17
g13
sg18
g13
sg19
S'/usr/share/fonts/mathjax/MathJax_Math-BoldItalic.otf'
p165
sg21
g22
sbag7
(g8
g9
NtRp166
(dp167
g12
g13
sg14
S'Cantarell'
p168
sg16
I700
sg17
g13
sg18
g13
sg19
S'/usr/share/fonts/abattis-cantarell/Cantarell-Bold.otf'
p169
sg21
g22
sbag7
(g8
g9
NtRp170
(dp171
g12
g13
sg14
S'esint10'
p172
sg16
I400
sg17
g13
sg18
g13
sg19
S'/usr/share/fonts/lyx/esint10.ttf'
p173
sg21
g22
sbag7
(g8
g9
NtRp174
(dp175
g12
g13
sg14
S'MathJax_Math'
p176
sg16
I400
sg17
g13
sg18
g13
sg19
S'/usr/share/fonts/mathjax/MathJax_Math-Regular.otf'
p177
sg21
g22
sbag7
(g8
g9
NtRp178
(dp179
g12
g13
sg14
S'MathJax_Main'
p180
sg16
I400
sg17
g13
sg18
g13
sg19
S'/usr/share/fonts/mathjax/MathJax_Main-Regular.otf'
p181
sg21
g22
sbag7
(g8
g9
NtRp182
(dp183
g12
g13
sg14
S'MathJax_SansSerif'
p184
sg16
I700
sg17
g13
sg18
g13
sg19
S'/usr/share/fonts/mathjax/MathJax_SansSerif-Bold.otf'
p185
sg21
g22
sbag7
(g8
g9
NtRp186
(dp187
g12
g54
sg14
S'MathJax_Math'
p188
sg16
I400
sg17
g13
sg18
g13
sg19
S'/usr/share/fonts/mathjax/MathJax_Math-Italic.otf'
p189
sg21
g22
sbag7
(g8
g9
NtRp190
(dp191
g12
g13
sg14
S'MathJax_SansSerif'
p192
sg16
I400
sg17
g13
sg18
g13
sg19
S'/usr/share/fonts/mathjax/MathJax_SansSerif-Regular.otf'
p193
sg21
g22
sbag7
(g8
g9
NtRp194
(dp195
g12
g13
sg14
S'eufm10'
p196
sg16
I400
sg17
g13
sg18
g13
sg19
S'/usr/share/fonts/lyx/eufm10.ttf'
p197
sg21
g22
sbag7
(g8
g9
NtRp198
(dp199
g12
g41
sg14
S'DejaVu Sans'
p200
sg16
I700
sg17
g13
sg18
g13
sg19
S'/usr/share/fonts/dejavu/DejaVuSans-BoldOblique.ttf'
p201
sg21
g22
sbag7
(g8
g9
NtRp202
(dp203
g12
g13
sg14
S'MathJax_Size1'
p204
sg16
I400
sg17
g13
sg18
g13
sg19
S'/usr/share/fonts/mathjax/MathJax_Size1-Regular.otf'
p205
sg21
g22
sbag7
(g8
g9
NtRp206
(dp207
g12
g41
sg14
S'DejaVu Sans Condensed'
p208
sg16
I400
sg17
g68
sg18
g13
sg19
S'/usr/share/fonts/dejavu/DejaVuSansCondensed-Oblique.ttf'
p209
sg21
g22
sbag7
(g8
g9
NtRp210
(dp211
g12
g54
sg14
S'Liberation Mono'
p212
sg16
I700
sg17
g13
sg18
g13
sg19
S'/usr/share/fonts/liberation/LiberationMono-BoldItalic.ttf'
p213
sg21
g22
sbag7
(g8
g9
NtRp214
(dp215
g12
g41
sg14
S'DejaVu Sans Mono'
p216
sg16
I700
sg17
g13
sg18
g13
sg19
S'/usr/share/fonts/dejavu/DejaVuSansMono-BoldOblique.ttf'
p217
sg21
g22
sbag7
(g8
g9
NtRp218
(dp219
g12
g13
sg14
S'DejaVu Sans Light'
p220
sg16
I200
sg17
g13
sg18
g13
sg19
S'/usr/share/fonts/dejavu/DejaVuSans-ExtraLight.ttf'
p221
sg21
g22
sbag7
(g8
g9
NtRp222
(dp223
g12
g13
sg14
S'MathJax_Fraktur'
p224
sg16
I700
sg17
g13
sg18
g13
sg19
S'/usr/share/fonts/mathjax/MathJax_Fraktur-Bold.otf'
p225
sg21
g22
sbag7
(g8
g9
NtRp226
(dp227
g12
g13
sg14
S'wasy10'
p228
sg16
I400
sg17
g13
sg18
g13
sg19
S'/usr/share/fonts/lyx/wasy10.ttf'
p229
sg21
g22
sbag7
(g8
g9
NtRp230
(dp231
g12
g54
sg14
S'Liberation Mono'
p232
sg16
I400
sg17
g13
sg18
g13
sg19
S'/usr/share/fonts/liberation/LiberationMono-Italic.ttf'
p233
sg21
g22
sbag7
(g8
g9
NtRp234
(dp235
g12
g13
sg14
S'Liberation Mono'
p236
sg16
I700
sg17
g13
sg18
g13
sg19
S'/usr/share/fonts/liberation/LiberationMono-Bold.ttf'
p237
sg21
g22
sbag7
(g8
g9
NtRp238
(dp239
g12
g13
sg14
S'MathJax_WinChrome'
p240
sg16
I400
sg17
g13
sg18
g13
sg19
S'/usr/share/fonts/mathjax/MathJax_WinChrome-Regular.otf'
p241
sg21
g22
sbag7
(g8
g9
NtRp242
(dp243
g12
g13
sg14
S'MathJax_Caligraphic'
p244
sg16
I700
sg17
g13
sg18
g13
sg19
S'/usr/share/fonts/mathjax/MathJax_Caligraphic-Bold.otf'
p245
sg21
g22
sbag7
(g8
g9
NtRp246
(dp247
g12
g41
sg14
S'DejaVu Sans Condensed'
p248
sg16
I700
sg17
g68
sg18
g13
sg19
S'/usr/share/fonts/dejavu/DejaVuSansCondensed-BoldOblique.ttf'
p249
sg21
g22
sbag7
(g8
g9
NtRp250
(dp251
g12
g13
sg14
S'msam10'
p252
sg16
I400
sg17
g13
sg18
g13
sg19
S'/usr/share/fonts/lyx/msam10.ttf'
p253
sg21
g22
sbag7
(g8
g9
NtRp254
(dp255
g12
g13
sg14
S'MathJax_Size3'
p256
sg16
I400
sg17
g13
sg18
g13
sg19
S'/usr/share/fonts/mathjax/MathJax_Size3-Regular.otf'
p257
sg21
g22
sbag7
(g8
g9
NtRp258
(dp259
g12
g13
sg14
S'cmsy10'
p260
sg16
I400
sg17
g13
sg18
g13
sg19
S'/usr/share/fonts/lyx/cmsy10.ttf'
p261
sg21
g22
sbag7
(g8
g9
NtRp262
(dp263
g12
g13
sg14
S'DejaVu Sans Mono'
p264
sg16
I400
sg17
g13
sg18
g13
sg19
S'/usr/share/fonts/dejavu/DejaVuSansMono.ttf'
p265
sg21
g22
sbag7
(g8
g9
NtRp266
(dp267
g12
g13
sg14
S'Cantarell'
p268
sg16
I400
sg17
g13
sg18
g13
sg19
S'/usr/share/fonts/abattis-cantarell/Cantarell-Regular.otf'
p269
sg21
g22
sbasS'defaultFamily'
p270
(dp271
S'afm'
p272
S'Helvetica'
p273
sS'ttf'
p274
S'Bitstream Vera Sans'
p275
ssS'ttffiles'
p276
(lp277
g20
ag26
ag30
ag34
ag38
ag43
ag47
ag51
ag56
ag60
ag64
ag69
aS'/usr/share/fonts/google-noto-emoji/NotoColorEmoji.ttf'
p278
ag73
ag77
ag81
ag85
ag89
ag93
ag97
ag101
ag105
ag109
ag113
ag117
ag121
ag125
ag129
ag133
ag137
ag141
ag145
ag149
ag153
ag157
ag161
ag165
ag169
ag173
ag177
ag181
ag185
ag189
ag193
ag197
ag201
ag205
ag209
ag213
ag217
ag221
ag225
ag229
ag233
ag237
ag241
ag245
ag249
ag253
ag257
ag261
ag265
ag269
asS'_FontManager__default_weight'
p279
g13
sS'_version'
p280
I7
sS'ttf_lookup_cache'
p281
(dp282
sS'default_size'
p283
NsS'defaultFont'
p284
(dp285
g272
Nsg274
g20
ssS'afmfiles'
p286
(lp287
S'/usr/share/fonts/default/ghostscript/fcyri.afm'
p288
aS'/usr/share/fonts/default/Type1/n021023l.afm'
p289
aS'/usr/share/fonts/default/ghostscript/u003043t.afm'
p290
aS'/usr/share/fonts/default/Type1/b018032l.afm'
p291
aS'/usr/share/fonts/default/Type1/p052024l.afm'
p292
aS'/usr/share/fonts/default/Type1/n019003l.afm'
p293
aS'/usr/share/fonts/default/Type1/n021003l.afm'
p294
aS'/usr/share/fonts/default/Type1/b018035l.afm'
p295
aS'/usr/share/fonts/default/Type1/p052003l.afm'
p296
aS'/usr/share/fonts/default/Type1/n022023l.afm'
p297
aS'/usr/share/fonts/default/Type1/n021024l.afm'
p298
aS'/usr/share/fonts/default/Type1/a010033l.afm'
p299
aS'/usr/share/fonts/default/Type1/p052004l.afm'
p300
aS'/usr/share/fonts/default/Type1/n019023l.afm'
p301
aS'/usr/share/fonts/default/Type1/c059036l.afm'
p302
aS'/usr/share/fonts/default/Type1/n019063l.afm'
p303
aS'/usr/share/fonts/default/Type1/n019043l.afm'
p304
aS'/usr/share/fonts/default/Type1/n019064l.afm'
p305
aS'/usr/share/fonts/default/Type1/n019044l.afm'
p306
aS'/usr/share/fonts/default/Type1/n021004l.afm'
p307
aS'/usr/share/fonts/default/Type1/n019024l.afm'
p308
aS'/usr/share/fonts/default/Type1/a010035l.afm'
p309
aS'/usr/share/fonts/default/ghostscript/fcyr.afm'
p310
aS'/usr/share/fonts/default/Type1/s050000l.afm'
p311
aS'/usr/share/fonts/default/Type1/a010013l.afm'
p312
aS'/usr/share/fonts/default/Type1/z003034l.afm'
p313
aS'/usr/share/fonts/default/Type1/n022004l.afm'
p314
aS'/usr/share/fonts/default/Type1/n019004l.afm'
p315
aS'/usr/share/fonts/default/Type1/b018012l.afm'
p316
aS'/usr/share/fonts/default/Type1/d050000l.afm'
p317
aS'/usr/share/fonts/default/Type1/c059013l.afm'
p318
aS'/usr/share/fonts/default/Type1/n022024l.afm'
p319
aS'/usr/share/fonts/default/Type1/a010015l.afm'
p320
aS'/usr/share/fonts/default/Type1/c059033l.afm'
p321
aS'/usr/share/fonts/default/Type1/n022003l.afm'
p322
aS'/usr/share/fonts/default/ghostscript/u004006t.afm'
p323
aS'/usr/share/fonts/default/Type1/p052023l.afm'
p324
aS'/usr/share/fonts/default/Type1/b018015l.afm'
p325
aS'/usr/share/fonts/default/Type1/c059016l.afm'
p326
asS'afmlist'
p327
(lp328
g7
(g8
g9
NtRp329
(dp330
g12
g54
sg14
S'Cyrillic'
p331
sg16
I500
sg17
g13
sg18
g13
sg19
g288
sg21
g22
sbag7
(g8
g9
NtRp332
(dp333
g12
g54
sg14
S'Nimbus Roman No9 L'
p334
sg16
I400
sg17
g13
sg18
g13
sg19
g289
sg21
g22
sbag7
(g8
g9
NtRp335
(dp336
g12
g13
sg14
S'URW Antiqua T'
p337
sg16
I400
sg17
g68
sg18
g13
sg19
g290
sg21
g22
sbag7
(g8
g9
NtRp338
(dp339
g12
g54
sg14
S'URW Bookman L'
p340
sg16
I400
sg17
g13
sg18
g13
sg19
g291
sg21
g22
sbag7
(g8
g9
NtRp341
(dp342
g12
g54
sg14
S'URW Palladio L'
p343
sg16
I700
sg17
g13
sg18
g13
sg19
g292
sg21
g22
sbag7
(g8
g9
NtRp344
(dp345
g12
g13
sg14
S'Nimbus Sans L'
p346
sg16
I400
sg17
g13
sg18
g13
sg19
g293
sg21
g22
sbag7
(g8
g9
NtRp347
(dp348
g12
g13
sg14
S'Nimbus Roman No9 L'
p349
sg16
I400
sg17
g13
sg18
g13
sg19
g294
sg21
g22
sbag7
(g8
g9
NtRp350
(dp351
g12
g54
sg14
S'URW Bookman L'
p352
sg16
I700
sg17
g13
sg18
g13
sg19
g295
sg21
g22
sbag7
(g8
g9
NtRp353
(dp354
g12
g13
sg14
S'URW Palladio L'
p355
sg16
I500
sg17
g13
sg18
g13
sg19
g296
sg21
g22
sbag7
(g8
g9
NtRp356
(dp357
g12
g54
sg14
S'Nimbus Mono L'
p358
sg16
I400
sg17
g13
sg18
g13
sg19
g297
sg21
g22
sbag7
(g8
g9
NtRp359
(dp360
g12
g54
sg14
S'Nimbus Roman No9 L'
p361
sg16
I700
sg17
g13
sg18
g13
sg19
g298
sg21
g22
sbag7
(g8
g9
NtRp362
(dp363
g12
g54
sg14
S'URW Gothic L'
p364
sg16
I400
sg17
g13
sg18
g13
sg19
g299
sg21
g22
sbag7
(g8
g9
NtRp365
(dp366
g12
g13
sg14
S'URW Palladio L'
p367
sg16
I700
sg17
g13
sg18
g13
sg19
g300
sg21
g22
sbag7
(g8
g9
NtRp368
(dp369
g12
g54
sg14
S'Nimbus Sans L'
p370
sg16
I400
sg17
g13
sg18
g13
sg19
g301
sg21
g22
sbag7
(g8
g9
NtRp371
(dp372
g12
g54
sg14
S'Century Schoolbook L'
p373
sg16
I700
sg17
g13
sg18
g13
sg19
g302
sg21
g22
sbag7
(g8
g9
NtRp374
(dp375
g12
g54
sg14
S'Nimbus Sans L'
p376
sg16
I400
sg17
g68
sg18
g13
sg19
g303
sg21
g22
sbag7
(g8
g9
NtRp377
(dp378
g12
g13
sg14
S'Nimbus Sans L'
p379
sg16
I400
sg17
g68
sg18
g13
sg19
g304
sg21
g22
sbag7
(g8
g9
NtRp380
(dp381
g12
g54
sg14
S'Nimbus Sans L'
p382
sg16
I700
sg17
g68
sg18
g13
sg19
g305
sg21
g22
sbag7
(g8
g9
NtRp383
(dp384
g12
g13
sg14
S'Nimbus Sans L'
p385
sg16
I700
sg17
g68
sg18
g13
sg19
g306
sg21
g22
sbag7
(g8
g9
NtRp386
(dp387
g12
g13
sg14
S'Nimbus Roman No9 L'
p388
sg16
I700
sg17
g13
sg18
g13
sg19
g307
sg21
g22
sbag7
(g8
g9
NtRp389
(dp390
g12
g54
sg14
S'Nimbus Sans L'
p391
sg16
I700
sg17
g13
sg18
g13
sg19
g308
sg21
g22
sbag7
(g8
g9
NtRp392
(dp393
g12
g54
sg14
S'URW Gothic L'
p394
sg16
I600
sg17
g13
sg18
g13
sg19
g309
sg21
g22
sbag7
(g8
g9
NtRp395
(dp396
g12
g13
sg14
S'Cyrillic'
p397
sg16
I500
sg17
g13
sg18
g13
sg19
g310
sg21
g22
sbag7
(g8
g9
NtRp398
(dp399
g12
g13
sg14
S'Standard Symbols L'
p400
sg16
I400
sg17
g13
sg18
g13
sg19
g311
sg21
g22
sbag7
(g8
g9
NtRp401
(dp402
g12
g13
sg14
S'URW Gothic L'
p403
sg16
I400
sg17
g13
sg18
g13
sg19
g312
sg21
g22
sbag7
(g8
g9
NtRp404
(dp405
g12
g54
sg14
S'URW Chancery L'
p406
sg16
I500
sg17
g13
sg18
g13
sg19
g313
sg21
g22
sbag7
(g8
g9
NtRp407
(dp408
g12
g13
sg14
S'Nimbus Mono L'
p409
sg16
I700
sg17
g13
sg18
g13
sg19
g314
sg21
g22
sbag7
(g8
g9
NtRp410
(dp411
g12
g13
sg14
S'Nimbus Sans L'
p412
sg16
I700
sg17
g13
sg18
g13
sg19
g315
sg21
g22
sbag7
(g8
g9
NtRp413
(dp414
g12
g13
sg14
S'URW Bookman L'
p415
sg16
I400
sg17
g13
sg18
g13
sg19
g316
sg21
g22
sbag7
(g8
g9
NtRp416
(dp417
g12
g13
sg14
S'Dingbats'
p418
sg16
I400
sg17
g13
sg18
g13
sg19
g317
sg21
g22
sbag7
(g8
g9
NtRp419
(dp420
g12
g13
sg14
S'Century Schoolbook L'
p421
sg16
I500
sg17
g13
sg18
g13
sg19
g318
sg21
g22
sbag7
(g8
g9
NtRp422
(dp423
g12
g54
sg14
S'Nimbus Mono L'
p424
sg16
I700
sg17
g13
sg18
g13
sg19
g319
sg21
g22
sbag7
(g8
g9
NtRp425
(dp426
g12
g13
sg14
S'URW Gothic L'
p427
sg16
I600
sg17
g13
sg18
g13
sg19
g320
sg21
g22
sbag7
(g8
g9
NtRp428
(dp429
g12
g54
sg14
S'Century Schoolbook L'
p430
sg16
I400
sg17
g13
sg18
g13
sg19
g321
sg21
g22
sbag7
(g8
g9
NtRp431
(dp432
g12
g13
sg14
S'Nimbus Mono L'
p433
sg16
I400
sg17
g13
sg18
g13
sg19
g322
sg21
g22
sbag7
(g8
g9
NtRp434
(dp435
g12
g13
sg14
S'URW Grotesk T'
p436
sg16
I400
sg17
g13
sg18
g13
sg19
g323
sg21
g22
sbag7
(g8
g9
NtRp437
(dp438
g12
g54
sg14
S'URW Palladio L'
p439
sg16
I400
sg17
g13
sg18
g13
sg19
g324
sg21
g22
sbag7
(g8
g9
NtRp440
(dp441
g12
g13
sg14
S'URW Bookman L'
p442
sg16
I700
sg17
g13
sg18
g13
sg19
g325
sg21
g22
sbag7
(g8
g9
NtRp443
(dp444
g12
g13
sg14
S'Century Schoolbook L'
p445
sg16
I700
sg17
g13
sg18
g13
sg19
g326
sg21
g22
sbasb.