(imatplotlib.font_manager
FontManager
p1
(dp2
S'afm_lookup_cache'
p3
(dp4
sS'ttflist'
p5
(lp6
ccopy_reg
_reconstructor
p7
(cmatplotlib.font_manager
FontEntry
p8
c__builtin__
object
p9
NtRp10
(dp11
S'style'
p12
S'normal'
p13
sS'name'
p14
S'STIXSizeFourSym'
p15
sS'weight'
p16
I700
sS'stretch'
p17
g13
sS'variant'
p18
g13
sS'fname'
p19
S'/lfs3/projects/amb-verif/anaconda/lib64/python/matplotlib/mpl-data/fonts/ttf/STIXSizFourSymBol.ttf'
p20
sS'size'
p21
S'scalable'
p22
sbag7
(g8
g9
NtRp23
(dp24
g12
S'oblique'
p25
sg14
S'Bitstream Vera Sans'
p26
sg16
I700
sg17
g13
sg18
g13
sg19
S'/lfs3/projects/amb-verif/anaconda/lib64/python/matplotlib/mpl-data/fonts/ttf/VeraBI.ttf'
p27
sg21
g22
sbag7
(g8
g9
NtRp28
(dp29
g12
g25
sg14
S'Bitstream Vera Sans'
p30
sg16
I400
sg17
g13
sg18
g13
sg19
S'/lfs3/projects/amb-verif/anaconda/lib64/python/matplotlib/mpl-data/fonts/ttf/VeraIt.ttf'
p31
sg21
g22
sbag7
(g8
g9
NtRp32
(dp33
g12
S'italic'
p34
sg14
S'STIXNonUnicode'
p35
sg16
I400
sg17
g13
sg18
g13
sg19
S'/lfs3/projects/amb-verif/anaconda/lib64/python/matplotlib/mpl-data/fonts/ttf/STIXNonUniIta.ttf'
p36
sg21
g22
sbag7
(g8
g9
NtRp37
(dp38
g12
g34
sg14
S'STIXNonUnicode'
p39
sg16
I700
sg17
g13
sg18
g13
sg19
S'/lfs3/projects/amb-verif/anaconda/lib64/python/matplotlib/mpl-data/fonts/ttf/STIXNonUniBolIta.ttf'
p40
sg21
g22
sbag7
(g8
g9
NtRp41
(dp42
g12
g34
sg14
S'STIXGeneral'
p43
sg16
I700
sg17
g13
sg18
g13
sg19
S'/lfs3/projects/amb-verif/anaconda/lib64/python/matplotlib/mpl-data/fonts/ttf/STIXGeneralBolIta.ttf'
p44
sg21
g22
sbag7
(g8
g9
NtRp45
(dp46
g12
g13
sg14
S'cmmi10'
p47
sg16
I400
sg17
g13
sg18
g13
sg19
S'/lfs3/projects/amb-verif/anaconda/lib64/python/matplotlib/mpl-data/fonts/ttf/cmmi10.ttf'
p48
sg21
g22
sbag7
(g8
g9
NtRp49
(dp50
g12
g13
sg14
S'Bitstream Vera Sans Mono'
p51
sg16
I700
sg17
g13
sg18
g13
sg19
S'/lfs3/projects/amb-verif/anaconda/lib64/python/matplotlib/mpl-data/fonts/ttf/VeraMoBd.ttf'
p52
sg21
g22
sbag7
(g8
g9
NtRp53
(dp54
g12
g25
sg14
S'Bitstream Vera Sans Mono'
p55
sg16
I400
sg17
g13
sg18
g13
sg19
S'/lfs3/projects/amb-verif/anaconda/lib64/python/matplotlib/mpl-data/fonts/ttf/VeraMoIt.ttf'
p56
sg21
g22
sbag7
(g8
g9
NtRp57
(dp58
g12
g13
sg14
S'Bitstream Vera Sans'
p59
sg16
I700
sg17
g13
sg18
g13
sg19
S'/lfs3/projects/amb-verif/anaconda/lib64/python/matplotlib/mpl-data/fonts/ttf/VeraBd.ttf'
p60
sg21
g22
sbag7
(g8
g9
NtRp61
(dp62
g12
g13
sg14
S'Bitstream Vera Sans'
p63
sg16
I400
sg17
g13
sg18
g13
sg19
S'/lfs3/projects/amb-verif/anaconda/lib64/python/matplotlib/mpl-data/fonts/ttf/Vera.ttf'
p64
sg21
g22
sbag7
(g8
g9
NtRp65
(dp66
g12
g13
sg14
S'STIXSizeTwoSym'
p67
sg16
I400
sg17
g13
sg18
g13
sg19
S'/lfs3/projects/amb-verif/anaconda/lib64/python/matplotlib/mpl-data/fonts/ttf/STIXSizTwoSymReg.ttf'
p68
sg21
g22
sbag7
(g8
g9
NtRp69
(dp70
g12
g25
sg14
S'Bitstream Vera Sans Mono'
p71
sg16
I700
sg17
g13
sg18
g13
sg19
S'/lfs3/projects/amb-verif/anaconda/lib64/python/matplotlib/mpl-data/fonts/ttf/VeraMoBI.ttf'
p72
sg21
g22
sbag7
(g8
g9
NtRp73
(dp74
g12
g13
sg14
S'cmb10'
p75
sg16
I400
sg17
g13
sg18
g13
sg19
S'/lfs3/projects/amb-verif/anaconda/lib64/python/matplotlib/mpl-data/fonts/ttf/cmb10.ttf'
p76
sg21
g22
sbag7
(g8
g9
NtRp77
(dp78
g12
g13
sg14
S'STIXSizeFiveSym'
p79
sg16
I400
sg17
g13
sg18
g13
sg19
S'/lfs3/projects/amb-verif/anaconda/lib64/python/matplotlib/mpl-data/fonts/ttf/STIXSizFiveSymReg.ttf'
p80
sg21
g22
sbag7
(g8
g9
NtRp81
(dp82
g12
g34
sg14
S'STIXGeneral'
p83
sg16
I400
sg17
g13
sg18
g13
sg19
S'/lfs3/projects/amb-verif/anaconda/lib64/python/matplotlib/mpl-data/fonts/ttf/STIXGeneralItalic.ttf'
p84
sg21
g22
sbag7
(g8
g9
NtRp85
(dp86
g12
g13
sg14
S'cmsy10'
p87
sg16
I400
sg17
g13
sg18
g13
sg19
S'/lfs3/projects/amb-verif/anaconda/lib64/python/matplotlib/mpl-data/fonts/ttf/cmsy10.ttf'
p88
sg21
g22
sbag7
(g8
g9
NtRp89
(dp90
g12
g13
sg14
S'STIXSizeOneSym'
p91
sg16
I400
sg17
g13
sg18
g13
sg19
S'/lfs3/projects/amb-verif/anaconda/lib64/python/matplotlib/mpl-data/fonts/ttf/STIXSizOneSymReg.ttf'
p92
sg21
g22
sbag7
(g8
g9
NtRp93
(dp94
g12
g13
sg14
S'STIXSizeThreeSym'
p95
sg16
I400
sg17
g13
sg18
g13
sg19
S'/lfs3/projects/amb-verif/anaconda/lib64/python/matplotlib/mpl-data/fonts/ttf/STIXSizThreeSymReg.ttf'
p96
sg21
g22
sbag7
(g8
g9
NtRp97
(dp98
g12
g13
sg14
S'STIXNonUnicode'
p99
sg16
I700
sg17
g13
sg18
g13
sg19
S'/lfs3/projects/amb-verif/anaconda/lib64/python/matplotlib/mpl-data/fonts/ttf/STIXNonUniBol.ttf'
p100
sg21
g22
sbag7
(g8
g9
NtRp101
(dp102
g12
g13
sg14
S'STIXGeneral'
p103
sg16
I400
sg17
g13
sg18
g13
sg19
S'/lfs3/projects/amb-verif/anaconda/lib64/python/matplotlib/mpl-data/fonts/ttf/STIXGeneral.ttf'
p104
sg21
g22
sbag7
(g8
g9
NtRp105
(dp106
g12
g13
sg14
S'Bitstream Vera Serif'
p107
sg16
I700
sg17
g13
sg18
g13
sg19
S'/lfs3/projects/amb-verif/anaconda/lib64/python/matplotlib/mpl-data/fonts/ttf/VeraSeBd.ttf'
p108
sg21
g22
sbag7
(g8
g9
NtRp109
(dp110
g12
g13
sg14
S'cmex10'
p111
sg16
I400
sg17
g13
sg18
g13
sg19
S'/lfs3/projects/amb-verif/anaconda/lib64/python/matplotlib/mpl-data/fonts/ttf/cmex10.ttf'
p112
sg21
g22
sbag7
(g8
g9
NtRp113
(dp114
g12
g13
sg14
S'STIXSizeFourSym'
p115
sg16
I400
sg17
g13
sg18
g13
sg19
S'/lfs3/projects/amb-verif/anaconda/lib64/python/matplotlib/mpl-data/fonts/ttf/STIXSizFourSymReg.ttf'
p116
sg21
g22
sbag7
(g8
g9
NtRp117
(dp118
g12
g13
sg14
S'cmss10'
p119
sg16
I400
sg17
g13
sg18
g13
sg19
S'/lfs3/projects/amb-verif/anaconda/lib64/python/matplotlib/mpl-data/fonts/ttf/cmss10.ttf'
p120
sg21
g22
sbag7
(g8
g9
NtRp121
(dp122
g12
g13
sg14
S'Bitstream Vera Serif'
p123
sg16
I400
sg17
g13
sg18
g13
sg19
S'/lfs3/projects/amb-verif/anaconda/lib64/python/matplotlib/mpl-data/fonts/ttf/VeraSe.ttf'
p124
sg21
g22
sbag7
(g8
g9
NtRp125
(dp126
g12
g13
sg14
S'STIXSizeOneSym'
p127
sg16
I700
sg17
g13
sg18
g13
sg19
S'/lfs3/projects/amb-verif/anaconda/lib64/python/matplotlib/mpl-data/fonts/ttf/STIXSizOneSymBol.ttf'
p128
sg21
g22
sbag7
(g8
g9
NtRp129
(dp130
g12
g13
sg14
S'cmr10'
p131
sg16
I400
sg17
g13
sg18
g13
sg19
S'/lfs3/projects/amb-verif/anaconda/lib64/python/matplotlib/mpl-data/fonts/ttf/cmr10.ttf'
p132
sg21
g22
sbag7
(g8
g9
NtRp133
(dp134
g12
g13
sg14
S'STIXSizeThreeSym'
p135
sg16
I700
sg17
g13
sg18
g13
sg19
S'/lfs3/projects/amb-verif/anaconda/lib64/python/matplotlib/mpl-data/fonts/ttf/STIXSizThreeSymBol.ttf'
p136
sg21
g22
sbag7
(g8
g9
NtRp137
(dp138
g12
g13
sg14
S'STIXNonUnicode'
p139
sg16
I400
sg17
g13
sg18
g13
sg19
S'/lfs3/projects/amb-verif/anaconda/lib64/python/matplotlib/mpl-data/fonts/ttf/STIXNonUni.ttf'
p140
sg21
g22
sbag7
(g8
g9
NtRp141
(dp142
g12
g13
sg14
S'STIXSizeTwoSym'
p143
sg16
I700
sg17
g13
sg18
g13
sg19
S'/lfs3/projects/amb-verif/anaconda/lib64/python/matplotlib/mpl-data/fonts/ttf/STIXSizTwoSymBol.ttf'
p144
sg21
g22
sbag7
(g8
g9
NtRp145
(dp146
g12
g13
sg14
S'Bitstream Vera Sans Mono'
p147
sg16
I400
sg17
g13
sg18
g13
sg19
S'/lfs3/projects/amb-verif/anaconda/lib64/python/matplotlib/mpl-data/fonts/ttf/VeraMono.ttf'
p148
sg21
g22
sbag7
(g8
g9
NtRp149
(dp150
g12
g13
sg14
S'STIXGeneral'
p151
sg16
I700
sg17
g13
sg18
g13
sg19
S'/lfs3/projects/amb-verif/anaconda/lib64/python/matplotlib/mpl-data/fonts/ttf/STIXGeneralBol.ttf'
p152
sg21
g22
sbag7
(g8
g9
NtRp153
(dp154
g12
g13
sg14
S'cmtt10'
p155
sg16
I400
sg17
g13
sg18
g13
sg19
S'/lfs3/projects/amb-verif/anaconda/lib64/python/matplotlib/mpl-data/fonts/ttf/cmtt10.ttf'
p156
sg21
g22
sbag7
(g8
g9
NtRp157
(dp158
g12
g25
sg14
S'DejaVu LGC Sans Mono'
p159
sg16
I400
sg17
g13
sg18
g13
sg19
S'/usr/share/fonts/dejavu/DejaVuLGCSansMono-Oblique.ttf'
p160
sg21
g22
sbag7
(g8
g9
NtRp161
(dp162
g12
g25
sg14
S'DejaVu Sans Mono'
p163
sg16
I700
sg17
g13
sg18
g13
sg19
S'/usr/share/fonts/dejavu/DejaVuSansMono-BoldOblique.ttf'
p164
sg21
g22
sbag7
(g8
g9
NtRp165
(dp166
g12
g13
sg14
S'DejaVu Sans'
p167
sg16
I200
sg17
g13
sg18
g13
sg19
S'/usr/share/fonts/dejavu/DejaVuSans-ExtraLight.ttf'
p168
sg21
g22
sbag7
(g8
g9
NtRp169
(dp170
g12
g25
sg14
S'DejaVu LGC Sans Mono'
p171
sg16
I700
sg17
g13
sg18
g13
sg19
S'/usr/share/fonts/dejavu/DejaVuLGCSansMono-BoldOblique.ttf'
p172
sg21
g22
sbag7
(g8
g9
NtRp173
(dp174
g12
g25
sg14
S'DejaVu Sans'
p175
sg16
I400
sg17
S'condensed'
p176
sg18
g13
sg19
S'/usr/share/fonts/dejavu/DejaVuSansCondensed-Oblique.ttf'
p177
sg21
g22
sbag7
(g8
g9
NtRp178
(dp179
g12
g13
sg14
S'Liberation Sans'
p180
sg16
I700
sg17
g13
sg18
g13
sg19
S'/usr/share/fonts/liberation/LiberationSans-Bold.ttf'
p181
sg21
g22
sbag7
(g8
g9
NtRp182
(dp183
g12
g34
sg14
S'Liberation Sans'
p184
sg16
I400
sg17
g13
sg18
g13
sg19
S'/usr/share/fonts/liberation/LiberationSans-Italic.ttf'
p185
sg21
g22
sbag7
(g8
g9
NtRp186
(dp187
g12
g13
sg14
S'DejaVu Sans Mono'
p188
sg16
I700
sg17
g13
sg18
g13
sg19
S'/usr/share/fonts/dejavu/DejaVuSansMono-Bold.ttf'
p189
sg21
g22
sbag7
(g8
g9
NtRp190
(dp191
g12
g34
sg14
S'Liberation Sans'
p192
sg16
I700
sg17
g13
sg18
g13
sg19
S'/usr/share/fonts/liberation/LiberationSans-BoldItalic.ttf'
p193
sg21
g22
sbag7
(g8
g9
NtRp194
(dp195
g12
g13
sg14
S'DejaVu Sans'
p196
sg16
I400
sg17
g176
sg18
g13
sg19
S'/usr/share/fonts/dejavu/DejaVuSansCondensed.ttf'
p197
sg21
g22
sbag7
(g8
g9
NtRp198
(dp199
g12
g25
sg14
S'DejaVu Sans Mono'
p200
sg16
I400
sg17
g13
sg18
g13
sg19
S'/usr/share/fonts/dejavu/DejaVuSansMono-Oblique.ttf'
p201
sg21
g22
sbag7
(g8
g9
NtRp202
(dp203
g12
g13
sg14
S'DejaVu LGC Sans Mono'
p204
sg16
I700
sg17
g13
sg18
g13
sg19
S'/usr/share/fonts/dejavu/DejaVuLGCSansMono-Bold.ttf'
p205
sg21
g22
sbag7
(g8
g9
NtRp206
(dp207
g12
g13
sg14
S'DejaVu Sans'
p208
sg16
I400
sg17
g13
sg18
g13
sg19
S'/usr/share/fonts/dejavu/DejaVuSans.ttf'
p209
sg21
g22
sbag7
(g8
g9
NtRp210
(dp211
g12
g25
sg14
S'DejaVu Sans'
p212
sg16
I700
sg17
g13
sg18
g13
sg19
S'/usr/share/fonts/dejavu/DejaVuSans-BoldOblique.ttf'
p213
sg21
g22
sbag7
(g8
g9
NtRp214
(dp215
g12
g13
sg14
S'DejaVu Sans'
p216
sg16
I700
sg17
g13
sg18
g13
sg19
S'/usr/share/fonts/dejavu/DejaVuSans-Bold.ttf'
p217
sg21
g22
sbag7
(g8
g9
NtRp218
(dp219
g12
g13
sg14
S'Liberation Sans'
p220
sg16
I400
sg17
g13
sg18
g13
sg19
S'/usr/share/fonts/liberation/LiberationSans-Regular.ttf'
p221
sg21
g22
sbag7
(g8
g9
NtRp222
(dp223
g12
g25
sg14
S'DejaVu Sans'
p224
sg16
I700
sg17
g176
sg18
g13
sg19
S'/usr/share/fonts/dejavu/DejaVuSansCondensed-BoldOblique.ttf'
p225
sg21
g22
sbag7
(g8
g9
NtRp226
(dp227
g12
g13
sg14
S'DejaVu LGC Sans Mono'
p228
sg16
I400
sg17
g13
sg18
g13
sg19
S'/usr/share/fonts/dejavu/DejaVuLGCSansMono.ttf'
p229
sg21
g22
sbag7
(g8
g9
NtRp230
(dp231
g12
g13
sg14
S'DejaVu Sans'
p232
sg16
I700
sg17
g176
sg18
g13
sg19
S'/usr/share/fonts/dejavu/DejaVuSansCondensed-Bold.ttf'
p233
sg21
g22
sbag7
(g8
g9
NtRp234
(dp235
g12
g25
sg14
S'DejaVu Sans'
p236
sg16
I400
sg17
g13
sg18
g13
sg19
S'/usr/share/fonts/dejavu/DejaVuSans-Oblique.ttf'
p237
sg21
g22
sbag7
(g8
g9
NtRp238
(dp239
g12
g13
sg14
S'DejaVu Sans Mono'
p240
sg16
I400
sg17
g13
sg18
g13
sg19
S'/usr/share/fonts/dejavu/DejaVuSansMono.ttf'
p241
sg21
g22
sbasS'defaultFamily'
p242
(dp243
S'afm'
p244
S'Helvetica'
p245
sS'ttf'
p246
S'Bitstream Vera Sans'
p247
ssS'ttffiles'
p248
(lp249
S'/lfs3/projects/amb-verif/anaconda/lib64/python/matplotlib/mpl-data/fonts/ttf/STIXSizFourSymBol.ttf'
p250
aS'/lfs3/projects/amb-verif/anaconda/lib64/python/matplotlib/mpl-data/fonts/ttf/VeraBI.ttf'
p251
aS'/lfs3/projects/amb-verif/anaconda/lib64/python/matplotlib/mpl-data/fonts/ttf/VeraIt.ttf'
p252
aS'/lfs3/projects/amb-verif/anaconda/lib64/python/matplotlib/mpl-data/fonts/ttf/STIXNonUniIta.ttf'
p253
aS'/lfs3/projects/amb-verif/anaconda/lib64/python/matplotlib/mpl-data/fonts/ttf/STIXNonUniBolIta.ttf'
p254
aS'/lfs3/projects/amb-verif/anaconda/lib64/python/matplotlib/mpl-data/fonts/ttf/STIXGeneralBolIta.ttf'
p255
aS'/lfs3/projects/amb-verif/anaconda/lib64/python/matplotlib/mpl-data/fonts/ttf/cmmi10.ttf'
p256
aS'/lfs3/projects/amb-verif/anaconda/lib64/python/matplotlib/mpl-data/fonts/ttf/VeraMoBd.ttf'
p257
aS'/lfs3/projects/amb-verif/anaconda/lib64/python/matplotlib/mpl-data/fonts/ttf/VeraMoIt.ttf'
p258
aS'/lfs3/projects/amb-verif/anaconda/lib64/python/matplotlib/mpl-data/fonts/ttf/VeraBd.ttf'
p259
aS'/lfs3/projects/amb-verif/anaconda/lib64/python/matplotlib/mpl-data/fonts/ttf/Vera.ttf'
p260
aS'/lfs3/projects/amb-verif/anaconda/lib64/python/matplotlib/mpl-data/fonts/ttf/STIXSizTwoSymReg.ttf'
p261
aS'/lfs3/projects/amb-verif/anaconda/lib64/python/matplotlib/mpl-data/fonts/ttf/VeraMoBI.ttf'
p262
aS'/lfs3/projects/amb-verif/anaconda/lib64/python/matplotlib/mpl-data/fonts/ttf/cmb10.ttf'
p263
aS'/lfs3/projects/amb-verif/anaconda/lib64/python/matplotlib/mpl-data/fonts/ttf/STIXSizFiveSymReg.ttf'
p264
aS'/lfs3/projects/amb-verif/anaconda/lib64/python/matplotlib/mpl-data/fonts/ttf/STIXGeneralItalic.ttf'
p265
aS'/lfs3/projects/amb-verif/anaconda/lib64/python/matplotlib/mpl-data/fonts/ttf/cmsy10.ttf'
p266
aS'/lfs3/projects/amb-verif/anaconda/lib64/python/matplotlib/mpl-data/fonts/ttf/STIXSizOneSymReg.ttf'
p267
aS'/lfs3/projects/amb-verif/anaconda/lib64/python/matplotlib/mpl-data/fonts/ttf/STIXSizThreeSymReg.ttf'
p268
aS'/lfs3/projects/amb-verif/anaconda/lib64/python/matplotlib/mpl-data/fonts/ttf/STIXNonUniBol.ttf'
p269
aS'/lfs3/projects/amb-verif/anaconda/lib64/python/matplotlib/mpl-data/fonts/ttf/STIXGeneral.ttf'
p270
aS'/lfs3/projects/amb-verif/anaconda/lib64/python/matplotlib/mpl-data/fonts/ttf/VeraSeBd.ttf'
p271
aS'/lfs3/projects/amb-verif/anaconda/lib64/python/matplotlib/mpl-data/fonts/ttf/cmex10.ttf'
p272
aS'/lfs3/projects/amb-verif/anaconda/lib64/python/matplotlib/mpl-data/fonts/ttf/STIXSizFourSymReg.ttf'
p273
aS'/lfs3/projects/amb-verif/anaconda/lib64/python/matplotlib/mpl-data/fonts/ttf/cmss10.ttf'
p274
aS'/lfs3/projects/amb-verif/anaconda/lib64/python/matplotlib/mpl-data/fonts/ttf/VeraSe.ttf'
p275
aS'/lfs3/projects/amb-verif/anaconda/lib64/python/matplotlib/mpl-data/fonts/ttf/STIXSizOneSymBol.ttf'
p276
aS'/lfs3/projects/amb-verif/anaconda/lib64/python/matplotlib/mpl-data/fonts/ttf/cmr10.ttf'
p277
aS'/lfs3/projects/amb-verif/anaconda/lib64/python/matplotlib/mpl-data/fonts/ttf/STIXSizThreeSymBol.ttf'
p278
aS'/lfs3/projects/amb-verif/anaconda/lib64/python/matplotlib/mpl-data/fonts/ttf/STIXNonUni.ttf'
p279
aS'/lfs3/projects/amb-verif/anaconda/lib64/python/matplotlib/mpl-data/fonts/ttf/STIXSizTwoSymBol.ttf'
p280
aS'/lfs3/projects/amb-verif/anaconda/lib64/python/matplotlib/mpl-data/fonts/ttf/VeraMono.ttf'
p281
aS'/lfs3/projects/amb-verif/anaconda/lib64/python/matplotlib/mpl-data/fonts/ttf/STIXGeneralBol.ttf'
p282
aS'/lfs3/projects/amb-verif/anaconda/lib64/python/matplotlib/mpl-data/fonts/ttf/cmtt10.ttf'
p283
aS'/usr/share/fonts/dejavu/DejaVuLGCSansMono-Oblique.ttf'
p284
aS'/usr/share/fonts/dejavu/DejaVuSansMono-BoldOblique.ttf'
p285
aS'/usr/share/fonts/dejavu/DejaVuSans-ExtraLight.ttf'
p286
aS'/usr/share/fonts/dejavu/DejaVuLGCSansMono-BoldOblique.ttf'
p287
aS'/usr/share/fonts/dejavu/DejaVuSansCondensed-Oblique.ttf'
p288
aS'/usr/share/fonts/liberation/LiberationSans-Bold.ttf'
p289
aS'/usr/share/fonts/liberation/LiberationSans-Italic.ttf'
p290
aS'/usr/share/fonts/dejavu/DejaVuSansMono-Bold.ttf'
p291
aS'/usr/share/fonts/liberation/LiberationSans-BoldItalic.ttf'
p292
aS'/usr/share/fonts/dejavu/DejaVuSansCondensed.ttf'
p293
aS'/usr/share/fonts/dejavu/DejaVuSansMono-Oblique.ttf'
p294
aS'/usr/share/fonts/dejavu/DejaVuLGCSansMono-Bold.ttf'
p295
aS'/usr/share/fonts/dejavu/DejaVuSans.ttf'
p296
aS'/usr/share/fonts/dejavu/DejaVuSans-BoldOblique.ttf'
p297
aS'/usr/share/fonts/dejavu/DejaVuSans-Bold.ttf'
p298
aS'/usr/share/fonts/liberation/LiberationSans-Regular.ttf'
p299
aS'/usr/share/fonts/dejavu/DejaVuSansCondensed-BoldOblique.ttf'
p300
aS'/usr/share/fonts/dejavu/DejaVuLGCSansMono.ttf'
p301
aS'/usr/share/fonts/dejavu/DejaVuSansCondensed-Bold.ttf'
p302
aS'/usr/share/fonts/dejavu/DejaVuSans-Oblique.ttf'
p303
aS'/usr/share/fonts/dejavu/DejaVuSansMono.ttf'
p304
asS'_FontManager__default_weight'
p305
g13
sS'_version'
p306
I101
sS'ttf_lookup_cache'
p307
(dp308
sS'default_size'
p309
NsS'defaultFont'
p310
(dp311
g244
S'/lfs3/projects/amb-verif/anaconda/lib64/python/matplotlib/mpl-data/fonts/afm/phvro8a.afm'
p312
sg246
g260
ssS'afmfiles'
p313
(lp314
g312
aS'/lfs3/projects/amb-verif/anaconda/lib64/python/matplotlib/mpl-data/fonts/pdfcorefonts/Helvetica-Bold.afm'
p315
aS'/lfs3/projects/amb-verif/anaconda/lib64/python/matplotlib/mpl-data/fonts/afm/pagko8a.afm'
p316
aS'/lfs3/projects/amb-verif/anaconda/lib64/python/matplotlib/mpl-data/fonts/afm/phvbo8an.afm'
p317
aS'/lfs3/projects/amb-verif/anaconda/lib64/python/matplotlib/mpl-data/fonts/pdfcorefonts/ZapfDingbats.afm'
p318
aS'/lfs3/projects/amb-verif/anaconda/lib64/python/matplotlib/mpl-data/fonts/afm/ptmb8a.afm'
p319
aS'/lfs3/projects/amb-verif/anaconda/lib64/python/matplotlib/mpl-data/fonts/afm/putri8a.afm'
p320
aS'/lfs3/projects/amb-verif/anaconda/lib64/python/matplotlib/mpl-data/fonts/afm/pcrb8a.afm'
p321
aS'/lfs3/projects/amb-verif/anaconda/lib64/python/matplotlib/mpl-data/fonts/afm/pncr8a.afm'
p322
aS'/lfs3/projects/amb-verif/anaconda/lib64/python/matplotlib/mpl-data/fonts/afm/pncri8a.afm'
p323
aS'/lfs3/projects/amb-verif/anaconda/lib64/python/matplotlib/mpl-data/fonts/afm/ptmr8a.afm'
p324
aS'/lfs3/projects/amb-verif/anaconda/lib64/python/matplotlib/mpl-data/fonts/afm/cmr10.afm'
p325
aS'/lfs3/projects/amb-verif/anaconda/lib64/python/matplotlib/mpl-data/fonts/afm/pbkdi8a.afm'
p326
aS'/lfs3/projects/amb-verif/anaconda/lib64/python/matplotlib/mpl-data/fonts/afm/pcrro8a.afm'
p327
aS'/lfs3/projects/amb-verif/anaconda/lib64/python/matplotlib/mpl-data/fonts/afm/phvl8a.afm'
p328
aS'/lfs3/projects/amb-verif/anaconda/lib64/python/matplotlib/mpl-data/fonts/pdfcorefonts/Times-BoldItalic.afm'
p329
aS'/lfs3/projects/amb-verif/anaconda/lib64/python/matplotlib/mpl-data/fonts/afm/pbkli8a.afm'
p330
aS'/lfs3/projects/amb-verif/anaconda/lib64/python/matplotlib/mpl-data/fonts/afm/pagd8a.afm'
p331
aS'/lfs3/projects/amb-verif/anaconda/lib64/python/matplotlib/mpl-data/fonts/afm/psyr.afm'
p332
aS'/lfs3/projects/amb-verif/anaconda/lib64/python/matplotlib/mpl-data/fonts/afm/phvr8an.afm'
p333
aS'/lfs3/projects/amb-verif/anaconda/lib64/python/matplotlib/mpl-data/fonts/afm/pagdo8a.afm'
p334
aS'/lfs3/projects/amb-verif/anaconda/lib64/python/matplotlib/mpl-data/fonts/pdfcorefonts/Times-Bold.afm'
p335
aS'/lfs3/projects/amb-verif/anaconda/lib64/python/matplotlib/mpl-data/fonts/pdfcorefonts/Helvetica-Oblique.afm'
p336
aS'/lfs3/projects/amb-verif/anaconda/lib64/python/matplotlib/mpl-data/fonts/afm/phvbo8a.afm'
p337
aS'/lfs3/projects/amb-verif/anaconda/lib64/python/matplotlib/mpl-data/fonts/afm/pzcmi8a.afm'
p338
aS'/lfs3/projects/amb-verif/anaconda/lib64/python/matplotlib/mpl-data/fonts/afm/pcrbo8a.afm'
p339
aS'/lfs3/projects/amb-verif/anaconda/lib64/python/matplotlib/mpl-data/fonts/afm/phvb8an.afm'
p340
aS'/lfs3/projects/amb-verif/anaconda/lib64/python/matplotlib/mpl-data/fonts/pdfcorefonts/Courier-Bold.afm'
p341
aS'/lfs3/projects/amb-verif/anaconda/lib64/python/matplotlib/mpl-data/fonts/afm/pbkl8a.afm'
p342
aS'/lfs3/projects/amb-verif/anaconda/lib64/python/matplotlib/mpl-data/fonts/afm/ptmbi8a.afm'
p343
aS'/lfs3/projects/amb-verif/anaconda/lib64/python/matplotlib/mpl-data/fonts/afm/putr8a.afm'
p344
aS'/lfs3/projects/amb-verif/anaconda/lib64/python/matplotlib/mpl-data/fonts/afm/pagk8a.afm'
p345
aS'/lfs3/projects/amb-verif/anaconda/lib64/python/matplotlib/mpl-data/fonts/pdfcorefonts/Symbol.afm'
p346
aS'/lfs3/projects/amb-verif/anaconda/lib64/python/matplotlib/mpl-data/fonts/afm/phvr8a.afm'
p347
aS'/lfs3/projects/amb-verif/anaconda/lib64/python/matplotlib/mpl-data/fonts/afm/pncbi8a.afm'
p348
aS'/lfs3/projects/amb-verif/anaconda/lib64/python/matplotlib/mpl-data/fonts/afm/pncb8a.afm'
p349
aS'/lfs3/projects/amb-verif/anaconda/lib64/python/matplotlib/mpl-data/fonts/afm/cmtt10.afm'
p350
aS'/lfs3/projects/amb-verif/anaconda/lib64/python/matplotlib/mpl-data/fonts/afm/putb8a.afm'
p351
aS'/lfs3/projects/amb-verif/anaconda/lib64/python/matplotlib/mpl-data/fonts/afm/pzdr.afm'
p352
aS'/lfs3/projects/amb-verif/anaconda/lib64/python/matplotlib/mpl-data/fonts/afm/phvb8a.afm'
p353
aS'/lfs3/projects/amb-verif/anaconda/lib64/python/matplotlib/mpl-data/fonts/pdfcorefonts/Courier-BoldOblique.afm'
p354
aS'/lfs3/projects/amb-verif/anaconda/lib64/python/matplotlib/mpl-data/fonts/pdfcorefonts/Times-Roman.afm'
p355
aS'/lfs3/projects/amb-verif/anaconda/lib64/python/matplotlib/mpl-data/fonts/afm/cmsy10.afm'
p356
aS'/lfs3/projects/amb-verif/anaconda/lib64/python/matplotlib/mpl-data/fonts/afm/cmex10.afm'
p357
aS'/lfs3/projects/amb-verif/anaconda/lib64/python/matplotlib/mpl-data/fonts/afm/pbkd8a.afm'
p358
aS'/lfs3/projects/amb-verif/anaconda/lib64/python/matplotlib/mpl-data/fonts/afm/pplri8a.afm'
p359
aS'/lfs3/projects/amb-verif/anaconda/lib64/python/matplotlib/mpl-data/fonts/pdfcorefonts/Courier.afm'
p360
aS'/lfs3/projects/amb-verif/anaconda/lib64/python/matplotlib/mpl-data/fonts/afm/pplb8a.afm'
p361
aS'/lfs3/projects/amb-verif/anaconda/lib64/python/matplotlib/mpl-data/fonts/pdfcorefonts/Helvetica.afm'
p362
aS'/lfs3/projects/amb-verif/anaconda/lib64/python/matplotlib/mpl-data/fonts/afm/ptmri8a.afm'
p363
aS'/lfs3/projects/amb-verif/anaconda/lib64/python/matplotlib/mpl-data/fonts/pdfcorefonts/Times-Italic.afm'
p364
aS'/lfs3/projects/amb-verif/anaconda/lib64/python/matplotlib/mpl-data/fonts/afm/phvlo8a.afm'
p365
aS'/lfs3/projects/amb-verif/anaconda/lib64/python/matplotlib/mpl-data/fonts/pdfcorefonts/Courier-Oblique.afm'
p366
aS'/lfs3/projects/amb-verif/anaconda/lib64/python/matplotlib/mpl-data/fonts/afm/pplbi8a.afm'
p367
aS'/lfs3/projects/amb-verif/anaconda/lib64/python/matplotlib/mpl-data/fonts/afm/phvro8an.afm'
p368
aS'/lfs3/projects/amb-verif/anaconda/lib64/python/matplotlib/mpl-data/fonts/afm/pplr8a.afm'
p369
aS'/lfs3/projects/amb-verif/anaconda/lib64/python/matplotlib/mpl-data/fonts/afm/putbi8a.afm'
p370
aS'/lfs3/projects/amb-verif/anaconda/lib64/python/matplotlib/mpl-data/fonts/afm/cmmi10.afm'
p371
aS'/lfs3/projects/amb-verif/anaconda/lib64/python/matplotlib/mpl-data/fonts/pdfcorefonts/Helvetica-BoldOblique.afm'
p372
aS'/lfs3/projects/amb-verif/anaconda/lib64/python/matplotlib/mpl-data/fonts/afm/pcrr8a.afm'
p373
aS'/usr/share/fonts/default/ghostscript/fcyri.afm'
p374
aS'/usr/share/fonts/default/Type1/n021023l.afm'
p375
aS'/usr/share/fonts/default/ghostscript/u003043t.afm'
p376
aS'/usr/share/fonts/default/Type1/b018032l.afm'
p377
aS'/usr/share/fonts/default/Type1/p052024l.afm'
p378
aS'/usr/share/fonts/default/Type1/n019003l.afm'
p379
aS'/usr/share/fonts/default/Type1/n021003l.afm'
p380
aS'/usr/share/fonts/default/Type1/b018035l.afm'
p381
aS'/usr/share/fonts/default/Type1/p052003l.afm'
p382
aS'/usr/share/fonts/default/Type1/n022023l.afm'
p383
aS'/usr/share/fonts/default/Type1/n021024l.afm'
p384
aS'/usr/share/fonts/default/Type1/a010033l.afm'
p385
aS'/usr/share/fonts/default/Type1/p052004l.afm'
p386
aS'/usr/share/fonts/default/Type1/n019023l.afm'
p387
aS'/usr/share/fonts/default/Type1/n022004l.afm'
p388
aS'/usr/share/fonts/default/Type1/n019063l.afm'
p389
aS'/usr/share/fonts/default/Type1/n019043l.afm'
p390
aS'/usr/share/fonts/default/Type1/n019064l.afm'
p391
aS'/usr/share/fonts/default/Type1/n019044l.afm'
p392
aS'/usr/share/fonts/default/Type1/n021004l.afm'
p393
aS'/usr/share/fonts/default/Type1/n019024l.afm'
p394
aS'/usr/share/fonts/default/Type1/a010035l.afm'
p395
aS'/usr/share/fonts/default/ghostscript/fcyr.afm'
p396
aS'/usr/share/fonts/default/Type1/s050000l.afm'
p397
aS'/usr/share/fonts/default/Type1/a010013l.afm'
p398
aS'/usr/share/fonts/default/Type1/z003034l.afm'
p399
aS'/usr/share/fonts/default/Type1/c059036l.afm'
p400
aS'/usr/share/fonts/default/Type1/n019004l.afm'
p401
aS'/usr/share/fonts/default/Type1/b018012l.afm'
p402
aS'/usr/share/fonts/default/Type1/d050000l.afm'
p403
aS'/usr/share/fonts/default/Type1/c059013l.afm'
p404
aS'/usr/share/fonts/default/Type1/n022024l.afm'
p405
aS'/usr/share/fonts/default/Type1/a010015l.afm'
p406
aS'/usr/share/fonts/default/Type1/c059033l.afm'
p407
aS'/usr/share/fonts/default/Type1/n022003l.afm'
p408
aS'/usr/share/fonts/default/ghostscript/u004006t.afm'
p409
aS'/usr/share/fonts/default/Type1/p052023l.afm'
p410
aS'/usr/share/fonts/default/Type1/b018015l.afm'
p411
aS'/usr/share/fonts/default/Type1/c059016l.afm'
p412
asS'afmlist'
p413
(lp414
g7
(g8
g9
NtRp415
(dp416
g12
g34
sg14
S'Helvetica'
p417
sg16
I500
sg17
g13
sg18
g13
sg19
g312
sg21
g22
sbag7
(g8
g9
NtRp418
(dp419
g12
g13
sg14
S'Helvetica'
p420
sg16
I700
sg17
g13
sg18
g13
sg19
g315
sg21
g22
sbag7
(g8
g9
NtRp421
(dp422
g12
g34
sg14
S'ITC Avant Garde Gothic'
p423
sg16
I400
sg17
g13
sg18
g13
sg19
g316
sg21
g22
sbag7
(g8
g9
NtRp424
(dp425
g12
g34
sg14
S'Helvetica'
p426
sg16
I700
sg17
g176
sg18
g13
sg19
g317
sg21
g22
sbag7
(g8
g9
NtRp427
(dp428
g12
g13
sg14
S'ZapfDingbats'
p429
sg16
I500
sg17
g13
sg18
g13
sg19
g318
sg21
g22
sbag7
(g8
g9
NtRp430
(dp431
g12
g13
sg14
S'Times'
p432
sg16
I700
sg17
g13
sg18
g13
sg19
g319
sg21
g22
sbag7
(g8
g9
NtRp433
(dp434
g12
g34
sg14
S'Utopia'
p435
sg16
I400
sg17
g13
sg18
g13
sg19
g320
sg21
g22
sbag7
(g8
g9
NtRp436
(dp437
g12
g13
sg14
S'Courier'
p438
sg16
I700
sg17
g13
sg18
g13
sg19
g321
sg21
g22
sbag7
(g8
g9
NtRp439
(dp440
g12
g13
sg14
S'New Century Schoolbook'
p441
sg16
I500
sg17
g13
sg18
g13
sg19
g322
sg21
g22
sbag7
(g8
g9
NtRp442
(dp443
g12
g34
sg14
S'New Century Schoolbook'
p444
sg16
I500
sg17
g13
sg18
g13
sg19
g323
sg21
g22
sbag7
(g8
g9
NtRp445
(dp446
g12
g13
sg14
S'Times'
p447
sg16
I500
sg17
g13
sg18
g13
sg19
g324
sg21
g22
sbag7
(g8
g9
NtRp448
(dp449
g12
g13
sg14
S'Computer Modern'
p450
sg16
I500
sg17
g13
sg18
g13
sg19
g325
sg21
g22
sbag7
(g8
g9
NtRp451
(dp452
g12
g34
sg14
S'ITC Bookman'
p453
sg16
I600
sg17
g13
sg18
g13
sg19
g326
sg21
g22
sbag7
(g8
g9
NtRp454
(dp455
g12
g34
sg14
S'Courier'
p456
sg16
I500
sg17
g13
sg18
g13
sg19
g327
sg21
g22
sbag7
(g8
g9
NtRp457
(dp458
g12
g13
sg14
S'Helvetica'
p459
sg16
I200
sg17
g13
sg18
g13
sg19
g328
sg21
g22
sbag7
(g8
g9
NtRp460
(dp461
g12
g34
sg14
S'Times'
p462
sg16
I700
sg17
g13
sg18
g13
sg19
g329
sg21
g22
sbag7
(g8
g9
NtRp463
(dp464
g12
g34
sg14
S'ITC Bookman'
p465
sg16
I200
sg17
g13
sg18
g13
sg19
g330
sg21
g22
sbag7
(g8
g9
NtRp466
(dp467
g12
g13
sg14
S'ITC Avant Garde Gothic'
p468
sg16
I600
sg17
g13
sg18
g13
sg19
g331
sg21
g22
sbag7
(g8
g9
NtRp469
(dp470
g12
g13
sg14
S'Symbol'
p471
sg16
I500
sg17
g13
sg18
g13
sg19
g332
sg21
g22
sbag7
(g8
g9
NtRp472
(dp473
g12
g13
sg14
S'Helvetica'
p474
sg16
I500
sg17
g176
sg18
g13
sg19
g333
sg21
g22
sbag7
(g8
g9
NtRp475
(dp476
g12
g34
sg14
S'ITC Avant Garde Gothic'
p477
sg16
I600
sg17
g13
sg18
g13
sg19
g334
sg21
g22
sbag7
(g8
g9
NtRp478
(dp479
g12
g13
sg14
S'Times'
p480
sg16
I700
sg17
g13
sg18
g13
sg19
g335
sg21
g22
sbag7
(g8
g9
NtRp481
(dp482
g12
g34
sg14
S'Helvetica'
p483
sg16
I500
sg17
g13
sg18
g13
sg19
g336
sg21
g22
sbag7
(g8
g9
NtRp484
(dp485
g12
g34
sg14
S'Helvetica'
p486
sg16
I700
sg17
g13
sg18
g13
sg19
g337
sg21
g22
sbag7
(g8
g9
NtRp487
(dp488
g12
g34
sg14
S'ITC Zapf Chancery'
p489
sg16
I500
sg17
g13
sg18
g13
sg19
g338
sg21
g22
sbag7
(g8
g9
NtRp490
(dp491
g12
g34
sg14
S'Courier'
p492
sg16
I700
sg17
g13
sg18
g13
sg19
g339
sg21
g22
sbag7
(g8
g9
NtRp493
(dp494
g12
g13
sg14
S'Helvetica'
p495
sg16
I700
sg17
g176
sg18
g13
sg19
g340
sg21
g22
sbag7
(g8
g9
NtRp496
(dp497
g12
g13
sg14
S'Courier'
p498
sg16
I700
sg17
g13
sg18
g13
sg19
g341
sg21
g22
sbag7
(g8
g9
NtRp499
(dp500
g12
g13
sg14
S'ITC Bookman'
p501
sg16
I200
sg17
g13
sg18
g13
sg19
g342
sg21
g22
sbag7
(g8
g9
NtRp502
(dp503
g12
g34
sg14
S'Times'
p504
sg16
I700
sg17
g13
sg18
g13
sg19
g343
sg21
g22
sbag7
(g8
g9
NtRp505
(dp506
g12
g13
sg14
S'Utopia'
p507
sg16
I400
sg17
g13
sg18
g13
sg19
g344
sg21
g22
sbag7
(g8
g9
NtRp508
(dp509
g12
g13
sg14
S'ITC Avant Garde Gothic'
p510
sg16
I400
sg17
g13
sg18
g13
sg19
g345
sg21
g22
sbag7
(g8
g9
NtRp511
(dp512
g12
g13
sg14
S'Symbol'
p513
sg16
I500
sg17
g13
sg18
g13
sg19
g346
sg21
g22
sbag7
(g8
g9
NtRp514
(dp515
g12
g13
sg14
S'Helvetica'
p516
sg16
I500
sg17
g13
sg18
g13
sg19
g347
sg21
g22
sbag7
(g8
g9
NtRp517
(dp518
g12
g34
sg14
S'New Century Schoolbook'
p519
sg16
I700
sg17
g13
sg18
g13
sg19
g348
sg21
g22
sbag7
(g8
g9
NtRp520
(dp521
g12
g13
sg14
S'New Century Schoolbook'
p522
sg16
I700
sg17
g13
sg18
g13
sg19
g349
sg21
g22
sbag7
(g8
g9
NtRp523
(dp524
g12
g13
sg14
S'Computer Modern'
p525
sg16
I500
sg17
g13
sg18
g13
sg19
g350
sg21
g22
sbag7
(g8
g9
NtRp526
(dp527
g12
g13
sg14
S'Utopia'
p528
sg16
I700
sg17
g13
sg18
g13
sg19
g351
sg21
g22
sbag7
(g8
g9
NtRp529
(dp530
g12
g13
sg14
S'ITC Zapf Dingbats'
p531
sg16
I500
sg17
g13
sg18
g13
sg19
g352
sg21
g22
sbag7
(g8
g9
NtRp532
(dp533
g12
g13
sg14
S'Helvetica'
p534
sg16
I700
sg17
g13
sg18
g13
sg19
g353
sg21
g22
sbag7
(g8
g9
NtRp535
(dp536
g12
g34
sg14
S'Courier'
p537
sg16
I700
sg17
g13
sg18
g13
sg19
g354
sg21
g22
sbag7
(g8
g9
NtRp538
(dp539
g12
g13
sg14
S'Times'
p540
sg16
I500
sg17
g13
sg18
g13
sg19
g355
sg21
g22
sbag7
(g8
g9
NtRp541
(dp542
g12
g34
sg14
S'Computer Modern'
p543
sg16
I500
sg17
g13
sg18
g13
sg19
g356
sg21
g22
sbag7
(g8
g9
NtRp544
(dp545
g12
g13
sg14
S'Computer Modern'
p546
sg16
I500
sg17
g13
sg18
g13
sg19
g357
sg21
g22
sbag7
(g8
g9
NtRp547
(dp548
g12
g13
sg14
S'ITC Bookman'
p549
sg16
I600
sg17
g13
sg18
g13
sg19
g358
sg21
g22
sbag7
(g8
g9
NtRp550
(dp551
g12
g34
sg14
S'Palatino'
p552
sg16
I500
sg17
g13
sg18
g13
sg19
g359
sg21
g22
sbag7
(g8
g9
NtRp553
(dp554
g12
g13
sg14
S'Courier'
p555
sg16
I500
sg17
g13
sg18
g13
sg19
g360
sg21
g22
sbag7
(g8
g9
NtRp556
(dp557
g12
g13
sg14
S'Palatino'
p558
sg16
I700
sg17
g13
sg18
g13
sg19
g361
sg21
g22
sbag7
(g8
g9
NtRp559
(dp560
g12
g13
sg14
S'Helvetica'
p561
sg16
I500
sg17
g13
sg18
g13
sg19
g362
sg21
g22
sbag7
(g8
g9
NtRp562
(dp563
g12
g34
sg14
S'Times'
p564
sg16
I500
sg17
g13
sg18
g13
sg19
g363
sg21
g22
sbag7
(g8
g9
NtRp565
(dp566
g12
g34
sg14
S'Times'
p567
sg16
I500
sg17
g13
sg18
g13
sg19
g364
sg21
g22
sbag7
(g8
g9
NtRp568
(dp569
g12
g34
sg14
S'Helvetica'
p570
sg16
I200
sg17
g13
sg18
g13
sg19
g365
sg21
g22
sbag7
(g8
g9
NtRp571
(dp572
g12
g34
sg14
S'Courier'
p573
sg16
I500
sg17
g13
sg18
g13
sg19
g366
sg21
g22
sbag7
(g8
g9
NtRp574
(dp575
g12
g34
sg14
S'Palatino'
p576
sg16
I700
sg17
g13
sg18
g13
sg19
g367
sg21
g22
sbag7
(g8
g9
NtRp577
(dp578
g12
g34
sg14
S'Helvetica'
p579
sg16
I500
sg17
g176
sg18
g13
sg19
g368
sg21
g22
sbag7
(g8
g9
NtRp580
(dp581
g12
g13
sg14
S'Palatino'
p582
sg16
I500
sg17
g13
sg18
g13
sg19
g369
sg21
g22
sbag7
(g8
g9
NtRp583
(dp584
g12
g34
sg14
S'Utopia'
p585
sg16
I700
sg17
g13
sg18
g13
sg19
g370
sg21
g22
sbag7
(g8
g9
NtRp586
(dp587
g12
g34
sg14
S'Computer Modern'
p588
sg16
I500
sg17
g13
sg18
g13
sg19
g371
sg21
g22
sbag7
(g8
g9
NtRp589
(dp590
g12
g34
sg14
S'Helvetica'
p591
sg16
I700
sg17
g13
sg18
g13
sg19
g372
sg21
g22
sbag7
(g8
g9
NtRp592
(dp593
g12
g13
sg14
S'Courier'
p594
sg16
I500
sg17
g13
sg18
g13
sg19
g373
sg21
g22
sbag7
(g8
g9
NtRp595
(dp596
g12
g34
sg14
S'Cyrillic'
p597
sg16
I500
sg17
g13
sg18
g13
sg19
g374
sg21
g22
sbag7
(g8
g9
NtRp598
(dp599
g12
g34
sg14
S'Nimbus Roman No9 L'
p600
sg16
I400
sg17
g13
sg18
g13
sg19
g375
sg21
g22
sbag7
(g8
g9
NtRp601
(dp602
g12
g13
sg14
S'URW Antiqua T'
p603
sg16
I400
sg17
g176
sg18
g13
sg19
g376
sg21
g22
sbag7
(g8
g9
NtRp604
(dp605
g12
g34
sg14
S'URW Bookman L'
p606
sg16
I400
sg17
g13
sg18
g13
sg19
g377
sg21
g22
sbag7
(g8
g9
NtRp607
(dp608
g12
g34
sg14
S'URW Palladio L'
p609
sg16
I700
sg17
g13
sg18
g13
sg19
g378
sg21
g22
sbag7
(g8
g9
NtRp610
(dp611
g12
g13
sg14
S'Nimbus Sans L'
p612
sg16
I400
sg17
g13
sg18
g13
sg19
g379
sg21
g22
sbag7
(g8
g9
NtRp613
(dp614
g12
g13
sg14
S'Nimbus Roman No9 L'
p615
sg16
I400
sg17
g13
sg18
g13
sg19
g380
sg21
g22
sbag7
(g8
g9
NtRp616
(dp617
g12
g34
sg14
S'URW Bookman L'
p618
sg16
I700
sg17
g13
sg18
g13
sg19
g381
sg21
g22
sbag7
(g8
g9
NtRp619
(dp620
g12
g13
sg14
S'URW Palladio L'
p621
sg16
I500
sg17
g13
sg18
g13
sg19
g382
sg21
g22
sbag7
(g8
g9
NtRp622
(dp623
g12
g34
sg14
S'Nimbus Mono L'
p624
sg16
I400
sg17
g13
sg18
g13
sg19
g383
sg21
g22
sbag7
(g8
g9
NtRp625
(dp626
g12
g34
sg14
S'Nimbus Roman No9 L'
p627
sg16
I700
sg17
g13
sg18
g13
sg19
g384
sg21
g22
sbag7
(g8
g9
NtRp628
(dp629
g12
g34
sg14
S'URW Gothic L'
p630
sg16
I400
sg17
g13
sg18
g13
sg19
g385
sg21
g22
sbag7
(g8
g9
NtRp631
(dp632
g12
g13
sg14
S'URW Palladio L'
p633
sg16
I700
sg17
g13
sg18
g13
sg19
g386
sg21
g22
sbag7
(g8
g9
NtRp634
(dp635
g12
g34
sg14
S'Nimbus Sans L'
p636
sg16
I400
sg17
g13
sg18
g13
sg19
g387
sg21
g22
sbag7
(g8
g9
NtRp637
(dp638
g12
g13
sg14
S'Nimbus Mono L'
p639
sg16
I700
sg17
g13
sg18
g13
sg19
g388
sg21
g22
sbag7
(g8
g9
NtRp640
(dp641
g12
g34
sg14
S'Nimbus Sans L'
p642
sg16
I400
sg17
g176
sg18
g13
sg19
g389
sg21
g22
sbag7
(g8
g9
NtRp643
(dp644
g12
g13
sg14
S'Nimbus Sans L'
p645
sg16
I400
sg17
g176
sg18
g13
sg19
g390
sg21
g22
sbag7
(g8
g9
NtRp646
(dp647
g12
g34
sg14
S'Nimbus Sans L'
p648
sg16
I700
sg17
g176
sg18
g13
sg19
g391
sg21
g22
sbag7
(g8
g9
NtRp649
(dp650
g12
g13
sg14
S'Nimbus Sans L'
p651
sg16
I700
sg17
g176
sg18
g13
sg19
g392
sg21
g22
sbag7
(g8
g9
NtRp652
(dp653
g12
g13
sg14
S'Nimbus Roman No9 L'
p654
sg16
I700
sg17
g13
sg18
g13
sg19
g393
sg21
g22
sbag7
(g8
g9
NtRp655
(dp656
g12
g34
sg14
S'Nimbus Sans L'
p657
sg16
I700
sg17
g13
sg18
g13
sg19
g394
sg21
g22
sbag7
(g8
g9
NtRp658
(dp659
g12
g34
sg14
S'URW Gothic L'
p660
sg16
I600
sg17
g13
sg18
g13
sg19
g395
sg21
g22
sbag7
(g8
g9
NtRp661
(dp662
g12
g13
sg14
S'Cyrillic'
p663
sg16
I500
sg17
g13
sg18
g13
sg19
g396
sg21
g22
sbag7
(g8
g9
NtRp664
(dp665
g12
g13
sg14
S'Standard Symbols L'
p666
sg16
I400
sg17
g13
sg18
g13
sg19
g397
sg21
g22
sbag7
(g8
g9
NtRp667
(dp668
g12
g13
sg14
S'URW Gothic L'
p669
sg16
I400
sg17
g13
sg18
g13
sg19
g398
sg21
g22
sbag7
(g8
g9
NtRp670
(dp671
g12
g34
sg14
S'URW Chancery L'
p672
sg16
I500
sg17
g13
sg18
g13
sg19
g399
sg21
g22
sbag7
(g8
g9
NtRp673
(dp674
g12
g34
sg14
S'Century Schoolbook L'
p675
sg16
I700
sg17
g13
sg18
g13
sg19
g400
sg21
g22
sbag7
(g8
g9
NtRp676
(dp677
g12
g13
sg14
S'Nimbus Sans L'
p678
sg16
I700
sg17
g13
sg18
g13
sg19
g401
sg21
g22
sbag7
(g8
g9
NtRp679
(dp680
g12
g13
sg14
S'URW Bookman L'
p681
sg16
I400
sg17
g13
sg18
g13
sg19
g402
sg21
g22
sbag7
(g8
g9
NtRp682
(dp683
g12
g13
sg14
S'Dingbats'
p684
sg16
I400
sg17
g13
sg18
g13
sg19
g403
sg21
g22
sbag7
(g8
g9
NtRp685
(dp686
g12
g13
sg14
S'Century Schoolbook L'
p687
sg16
I500
sg17
g13
sg18
g13
sg19
g404
sg21
g22
sbag7
(g8
g9
NtRp688
(dp689
g12
g34
sg14
S'Nimbus Mono L'
p690
sg16
I700
sg17
g13
sg18
g13
sg19
g405
sg21
g22
sbag7
(g8
g9
NtRp691
(dp692
g12
g13
sg14
S'URW Gothic L'
p693
sg16
I600
sg17
g13
sg18
g13
sg19
g406
sg21
g22
sbag7
(g8
g9
NtRp694
(dp695
g12
g34
sg14
S'Century Schoolbook L'
p696
sg16
I400
sg17
g13
sg18
g13
sg19
g407
sg21
g22
sbag7
(g8
g9
NtRp697
(dp698
g12
g13
sg14
S'Nimbus Mono L'
p699
sg16
I400
sg17
g13
sg18
g13
sg19
g408
sg21
g22
sbag7
(g8
g9
NtRp700
(dp701
g12
g13
sg14
S'URW Grotesk T'
p702
sg16
I400
sg17
g13
sg18
g13
sg19
g409
sg21
g22
sbag7
(g8
g9
NtRp703
(dp704
g12
g34
sg14
S'URW Palladio L'
p705
sg16
I400
sg17
g13
sg18
g13
sg19
g410
sg21
g22
sbag7
(g8
g9
NtRp706
(dp707
g12
g13
sg14
S'URW Bookman L'
p708
sg16
I700
sg17
g13
sg18
g13
sg19
g411
sg21
g22
sbag7
(g8
g9
NtRp709
(dp710
g12
g13
sg14
S'Century Schoolbook L'
p711
sg16
I700
sg17
g13
sg18
g13
sg19
g412
sg21
g22
sbasb.